target datalayout = "e-m:e-p270:32:32-p271:32:32-p272:64:64-i64:64-i128:128-f80:128-n8:16:32:64-S128"
target triple = "x86_64-pc-linux-gnu"

%"class.std::__cxx11::basic_string" = type { %"struct.std::__cxx11::basic_string<char>::_Alloc_hider", i64, %union.anon }
%"struct.std::__cxx11::basic_string<char>::_Alloc_hider" = type { ptr }
%union.anon = type { i64, [8 x i8] }
%class.V3Options = type <{ ptr, %"class.std::set", %"class.std::vector", %"class.std::vector", %"class.std::vector", %"class.std::set", %"class.std::set", %"class.std::set", %"class.std::set", %"class.std::set", %"class.std::set", %"class.std::set", %"class.std::vector", %"class.std::set", %"class.std::vector", %"class.std::map.11", %"class.std::map.11", %"class.std::map", %"class.std::map.16", %"class.std::set", i8, i8, i8, i8, i8, i8, i8, i8, i8, i8, i8, i8, i8, i8, i8, i8, i8, i8, i8, i8, i8, i8, i8, i8, i8, i8, i8, i8, i8, i8, i8, i8, i8, i8, i8, i8, i8, i8, i8, i8, i8, i8, i8, i8, i8, i8, i8, i8, i8, i8, i8, i8, i8, i8, i8, i8, i8, i8, i8, i8, i8, i8, i8, i8, i8, i8, i8, i8, i8, i8, i8, i8, i8, i8, %class.VOptionBool, i8, i8, i8, i8, i8, i8, i8, i8, i8, i8, i8, i8, i8, i32, i32, i32, i32, i32, i32, i32, i32, i32, i32, i8, i8, [2 x i8], i32, %class.VOptionBool, [3 x i8], i32, i32, i32, i32, i32, i32, i32, i32, i32, i32, %class.VOptionBool, i8, [2 x i8], i32, i32, %class.VTimescale, %class.VTimescale, %class.VTimescale, %class.VTimescale, i32, %class.TraceFormat, [3 x i8], i32, i32, i32, i32, i32, i32, i32, i32, i32, %"class.std::__cxx11::basic_string", %"class.std::__cxx11::basic_string", %"class.std::__cxx11::basic_string", %"class.std::__cxx11::basic_string", %"class.std::__cxx11::basic_string", %"class.std::__cxx11::basic_string", %"class.std::__cxx11::basic_string", %"class.std::__cxx11::basic_string", %"class.std::__cxx11::basic_string", %"class.std::__cxx11::basic_string", %"class.std::__cxx11::basic_string", %"class.std::__cxx11::basic_string", %"class.std::__cxx11::basic_string", %"class.std::__cxx11::basic_string", %"class.std::__cxx11::basic_string", %"class.std::__cxx11::basic_string", %"class.std::__cxx11::basic_string", %"class.std::__cxx11::basic_string", %"class.std::__cxx11::basic_string", %"class.std::__cxx11::basic_string", %class.V3LangCode, i8, i8, i8, i8, i8, i8, i8, i8, i8, i8, i8, i8, i8, i8, i8, i8, i8, i8, i8, i8, i8, i8, i8, i8, i8, i8, i8, i8, i8, i8, i8, i8, i8, i8, [5 x i8] }>
%"class.std::vector" = type { %"struct.std::_Vector_base" }
%"struct.std::_Vector_base" = type { %"struct.std::_Vector_base<std::__cxx11::basic_string<char>, std::allocator<std::__cxx11::basic_string<char>>>::_Vector_impl" }
%"struct.std::_Vector_base<std::__cxx11::basic_string<char>, std::allocator<std::__cxx11::basic_string<char>>>::_Vector_impl" = type { %"struct.std::_Vector_base<std::__cxx11::basic_string<char>, std::allocator<std::__cxx11::basic_string<char>>>::_Vector_impl_data" }
%"struct.std::_Vector_base<std::__cxx11::basic_string<char>, std::allocator<std::__cxx11::basic_string<char>>>::_Vector_impl_data" = type { ptr, ptr, ptr }
%"class.std::map.11" = type { %"class.std::_Rb_tree.12" }
%"class.std::_Rb_tree.12" = type { %"struct.std::_Rb_tree<const std::__cxx11::basic_string<char>, std::pair<const std::__cxx11::basic_string<char>, unsigned int>, std::_Select1st<std::pair<const std::__cxx11::basic_string<char>, unsigned int>>, std::less<const std::__cxx11::basic_string<char>>>::_Rb_tree_impl" }
%"struct.std::_Rb_tree<const std::__cxx11::basic_string<char>, std::pair<const std::__cxx11::basic_string<char>, unsigned int>, std::_Select1st<std::pair<const std::__cxx11::basic_string<char>, unsigned int>>, std::less<const std::__cxx11::basic_string<char>>>::_Rb_tree_impl" = type { [8 x i8], %"struct.std::_Rb_tree_header" }
%"struct.std::_Rb_tree_header" = type { %"struct.std::_Rb_tree_node_base", i64 }
%"struct.std::_Rb_tree_node_base" = type { i32, ptr, ptr, ptr }
%"class.std::map" = type { %"class.std::_Rb_tree" }
%"class.std::_Rb_tree" = type { %"struct.std::_Rb_tree<const std::__cxx11::basic_string<char>, std::pair<const std::__cxx11::basic_string<char>, std::__cxx11::basic_string<char>>, std::_Select1st<std::pair<const std::__cxx11::basic_string<char>, std::__cxx11::basic_string<char>>>, std::less<const std::__cxx11::basic_string<char>>>::_Rb_tree_impl" }
%"struct.std::_Rb_tree<const std::__cxx11::basic_string<char>, std::pair<const std::__cxx11::basic_string<char>, std::__cxx11::basic_string<char>>, std::_Select1st<std::pair<const std::__cxx11::basic_string<char>, std::__cxx11::basic_string<char>>>, std::less<const std::__cxx11::basic_string<char>>>::_Rb_tree_impl" = type { [8 x i8], %"struct.std::_Rb_tree_header" }
%"class.std::map.16" = type { %"class.std::_Rb_tree.17" }
%"class.std::_Rb_tree.17" = type { %"struct.std::_Rb_tree<const std::__cxx11::basic_string<char>, std::pair<const std::__cxx11::basic_string<char>, V3HierarchicalBlockOption>, std::_Select1st<std::pair<const std::__cxx11::basic_string<char>, V3HierarchicalBlockOption>>, std::less<const std::__cxx11::basic_string<char>>>::_Rb_tree_impl" }
%"struct.std::_Rb_tree<const std::__cxx11::basic_string<char>, std::pair<const std::__cxx11::basic_string<char>, V3HierarchicalBlockOption>, std::_Select1st<std::pair<const std::__cxx11::basic_string<char>, V3HierarchicalBlockOption>>, std::less<const std::__cxx11::basic_string<char>>>::_Rb_tree_impl" = type { [8 x i8], %"struct.std::_Rb_tree_header" }
%"class.std::set" = type { %"class.std::_Rb_tree.6" }
%"class.std::_Rb_tree.6" = type { %"struct.std::_Rb_tree<std::__cxx11::basic_string<char>, std::__cxx11::basic_string<char>, std::_Identity<std::__cxx11::basic_string<char>>, std::less<std::__cxx11::basic_string<char>>>::_Rb_tree_impl" }
%"struct.std::_Rb_tree<std::__cxx11::basic_string<char>, std::__cxx11::basic_string<char>, std::_Identity<std::__cxx11::basic_string<char>>, std::less<std::__cxx11::basic_string<char>>>::_Rb_tree_impl" = type { [8 x i8], %"struct.std::_Rb_tree_header" }
%class.VOptionBool = type { i8 }
%class.VTimescale = type { i8 }
%class.TraceFormat = type { i8 }
%class.V3LangCode = type { i8 }

; Function Attrs: mustprogress nounwind uwtable
define linkonce_odr dso_local i8 @_ZNK9V3Options15timeDefaultUnitEv(ptr noundef nonnull align 8 dereferenceable(1720) %0) #6 comdat align 2 {
  %2 = alloca %class.VTimescale, align 1
  %3 = alloca ptr, align 8
  store ptr %0, ptr %3, align 8, !tbaa !93
  %4 = load ptr, ptr %3, align 8
  %5 = getelementptr inbounds nuw %class.V3Options, ptr %4, i32 0, i32 140
  call void @llvm.memcpy.p0.p0.i64(ptr align 1 %2, ptr align 1 %5, i64 1, i1 false), !tbaa.struct !83
  %6 = getelementptr inbounds nuw %class.VTimescale, ptr %2, i32 0, i32 0
  %7 = load i8, ptr %6, align 1
  ret i8 %7
}

; Function Attrs: mustprogress nounwind uwtable
define linkonce_odr dso_local noundef zeroext i1 @_ZNK10VTimescale6isNoneEv(ptr noundef nonnull align 1 dereferenceable(1) %0) #6 comdat align 2 {
  %2 = alloca ptr, align 8
  store ptr %0, ptr %2, align 8, !tbaa !18
  %3 = load ptr, ptr %2, align 8
  %4 = getelementptr inbounds nuw %class.VTimescale, ptr %3, i32 0, i32 0
  %5 = load i8, ptr %4, align 1, !tbaa !24
  %6 = zext i8 %5 to i32
  %7 = icmp eq i32 %6, 18
  ret i1 %7
}

; Function Attrs: mustprogress nounwind uwtable
define linkonce_odr dso_local i8 @_ZNK9V3Options16timeOverrideUnitEv(ptr noundef nonnull align 8 dereferenceable(1720) %0) #6 comdat align 2 {
  %2 = alloca %class.VTimescale, align 1
  %3 = alloca ptr, align 8
  store ptr %0, ptr %3, align 8, !tbaa !93
  %4 = load ptr, ptr %3, align 8
  %5 = getelementptr inbounds nuw %class.V3Options, ptr %4, i32 0, i32 142
  call void @llvm.memcpy.p0.p0.i64(ptr align 1 %2, ptr align 1 %5, i64 1, i1 false), !tbaa.struct !83
  %6 = getelementptr inbounds nuw %class.VTimescale, ptr %2, i32 0, i32 0
  %7 = load i8, ptr %6, align 1
  ret i8 %7
}

; Function Attrs: mustprogress uwtable
define dso_local i8 @_ZNK9V3Options15timeComputeUnitERK10VTimescale(ptr noundef nonnull align 8 dereferenceable(1720) %0, ptr noundef nonnull align 1 dereferenceable(1) %1) #4 align 2 {
  %3 = alloca %class.VTimescale, align 1
  %4 = alloca ptr, align 8
  %5 = alloca ptr, align 8
  %6 = alloca %class.VTimescale, align 1
  store ptr %0, ptr %4, align 8, !tbaa !93
  store ptr %1, ptr %5, align 8, !tbaa !18
  %7 = load ptr, ptr %4, align 8
  call void @llvm.lifetime.start.p0(i64 1, ptr %6) #3
  %8 = call i8 @_ZNK9V3Options16timeOverrideUnitEv(ptr noundef nonnull align 8 dereferenceable(1720) %7)
  %9 = getelementptr inbounds nuw %class.VTimescale, ptr %6, i32 0, i32 0
  store i8 %8, ptr %9, align 1
  %10 = call noundef zeroext i1 @_ZNK10VTimescale6isNoneEv(ptr noundef nonnull align 1 dereferenceable(1) %6)
  %11 = xor i1 %10, true
  call void @llvm.lifetime.end.p0(i64 1, ptr %6) #3
  br i1 %11, label %12, label %15

12:                                               ; preds = %2
  %13 = call i8 @_ZNK9V3Options16timeOverrideUnitEv(ptr noundef nonnull align 8 dereferenceable(1720) %7)
  %14 = getelementptr inbounds nuw %class.VTimescale, ptr %3, i32 0, i32 0
  store i8 %13, ptr %14, align 1
  br label %23

15:                                               ; preds = %2
  %16 = load ptr, ptr %5, align 8, !tbaa !18
  %17 = call noundef zeroext i1 @_ZNK10VTimescale6isNoneEv(ptr noundef nonnull align 1 dereferenceable(1) %16)
  br i1 %17, label %18, label %21

18:                                               ; preds = %15
  %19 = call i8 @_ZNK9V3Options15timeDefaultUnitEv(ptr noundef nonnull align 8 dereferenceable(1720) %7)
  %20 = getelementptr inbounds nuw %class.VTimescale, ptr %3, i32 0, i32 0
  store i8 %19, ptr %20, align 1
  br label %23

21:                                               ; preds = %15
  %22 = load ptr, ptr %5, align 8, !tbaa !18
  call void @llvm.memcpy.p0.p0.i64(ptr align 1 %3, ptr align 1 %22, i64 1, i1 false), !tbaa.struct !83
  br label %23

23:                                               ; preds = %21, %18, %12
  %24 = getelementptr inbounds nuw %class.VTimescale, ptr %3, i32 0, i32 0
  %25 = load i8, ptr %24, align 1
  ret i8 %25
}